target datalayout = "e-m:e-p270:32:32-p271:32:32-p272:64:64-i64:64-i128:128-f80:128-n8:16:32:64-S128"
target triple = "x86_64-pc-linux-gnu"

%struct.FFV1Context = type { ptr, ptr, [256 x [2 x i64]], [8 x ptr], i32, i32, i32, i32, i32, i32, i32, i32, i32, i32, i64, i32, %struct.ProgressFrame, %struct.ProgressFrame, ptr, ptr, i32, i32, i32, ptr, i32, i32, [8 x [5 x [256 x i16]]], [8 x i32], [256 x i8], [8 x ptr], i32, i32, i32, i32, i32, i32, i32, i32, i32, i32, i32, i32, i32, i32, i32, i32, i32, i32, i32, ptr, ptr, i8 }
%struct.ProgressFrame = type { ptr, ptr }
%struct.FFV1SliceContext = type { ptr, ptr, i32, i32, i32, i32, i32, i32, i32, i32, i32, i32, i32, ptr, %struct.PutBitContext, %struct.RangeCoder, i32, %union.anon.0, [4 x i32], [4 x ptr], [4 x ptr], [4 x ptr], [4 x i32], [4 x i32], [4 x ptr] }
%struct.PutBitContext = type { i32, i32, ptr, ptr, ptr }
%struct.RangeCoder = type { i32, i32, i32, i32, [256 x i8], [256 x i8], ptr, ptr, ptr, i32 }
%union.anon.0 = type { %struct.anon.1 }
%struct.anon.1 = type { [256 x [2 x i64]], [8 x ptr] }

; Function Attrs: cold nounwind optsize uwtable
define void @ff_ffv1_close(ptr noundef %0) #0 {
  %2 = alloca ptr, align 8
  %3 = alloca i32, align 4
  %4 = alloca i32, align 4
  %5 = alloca ptr, align 8
  %6 = alloca i32, align 4
  %7 = alloca ptr, align 8
  store ptr %0, ptr %2, align 8, !tbaa !9
  call void @llvm.lifetime.start.p0(i64 4, ptr %3) #9
  call void @llvm.lifetime.start.p0(i64 4, ptr %4) #9
  store i32 0, ptr %4, align 4, !tbaa !45
  br label %8

8:                                                ; preds = %56, %1
  %9 = load i32, ptr %4, align 4, !tbaa !45
  %10 = load ptr, ptr %2, align 8, !tbaa !9
  %11 = getelementptr inbounds nuw %struct.FFV1Context, ptr %10, i32 0, i32 46
  %12 = load i32, ptr %11, align 8, !tbaa !71
  %13 = icmp slt i32 %9, %12
  br i1 %13, label %14, label %59

14:                                               ; preds = %8
  call void @llvm.lifetime.start.p0(i64 8, ptr %5) #9
  %15 = load ptr, ptr %2, align 8, !tbaa !9
  %16 = getelementptr inbounds nuw %struct.FFV1Context, ptr %15, i32 0, i32 49
  %17 = load ptr, ptr %16, align 8, !tbaa !72
  %18 = load i32, ptr %4, align 4, !tbaa !45
  %19 = sext i32 %18 to i64
  %20 = getelementptr inbounds %struct.FFV1SliceContext, ptr %17, i64 %19
  store ptr %20, ptr %5, align 8, !tbaa !52
  %21 = load ptr, ptr %5, align 8, !tbaa !52
  %22 = getelementptr inbounds nuw %struct.FFV1SliceContext, ptr %21, i32 0, i32 0
  call void @av_freep(ptr noundef %22)
  %23 = load ptr, ptr %5, align 8, !tbaa !52
  %24 = getelementptr inbounds nuw %struct.FFV1SliceContext, ptr %23, i32 0, i32 1
  call void @av_freep(ptr noundef %24)
  call void @llvm.lifetime.start.p0(i64 4, ptr %6) #9
  store i32 0, ptr %6, align 4, !tbaa !45
  br label %25

25:                                               ; preds = %50, %14
  %26 = load i32, ptr %6, align 4, !tbaa !45
  %27 = icmp slt i32 %26, 4
  br i1 %27, label %29, label %28

28:                                               ; preds = %25
  call void @llvm.lifetime.end.p0(i64 4, ptr %6) #9
  br label %53

29:                                               ; preds = %25
  %30 = load ptr, ptr %5, align 8, !tbaa !52
  %31 = getelementptr inbounds nuw %struct.FFV1SliceContext, ptr %30, i32 0, i32 20
  %32 = load i32, ptr %6, align 4, !tbaa !45
  %33 = sext i32 %32 to i64
  %34 = getelementptr inbounds [4 x ptr], ptr %31, i64 0, i64 %33
  call void @av_freep(ptr noundef %34)
  %35 = load ptr, ptr %5, align 8, !tbaa !52
  %36 = getelementptr inbounds nuw %struct.FFV1SliceContext, ptr %35, i32 0, i32 21
  %37 = load i32, ptr %6, align 4, !tbaa !45
  %38 = sext i32 %37 to i64
  %39 = getelementptr inbounds [4 x ptr], ptr %36, i64 0, i64 %38
  call void @av_freep(ptr noundef %39)
  %40 = load ptr, ptr %5, align 8, !tbaa !52
  %41 = getelementptr inbounds nuw %struct.FFV1SliceContext, ptr %40, i32 0, i32 22
  %42 = load i32, ptr %6, align 4, !tbaa !45
  %43 = sext i32 %42 to i64
  %44 = getelementptr inbounds [4 x i32], ptr %41, i64 0, i64 %43
  store i32 0, ptr %44, align 4, !tbaa !45
  %45 = load ptr, ptr %5, align 8, !tbaa !52
  %46 = getelementptr inbounds nuw %struct.FFV1SliceContext, ptr %45, i32 0, i32 23
  %47 = load i32, ptr %6, align 4, !tbaa !45
  %48 = sext i32 %47 to i64
  %49 = getelementptr inbounds [4 x i32], ptr %46, i64 0, i64 %48
  store i32 0, ptr %49, align 4, !tbaa !45
  br label %50

50:                                               ; preds = %29
  %51 = load i32, ptr %6, align 4, !tbaa !45
  %52 = add nsw i32 %51, 1
  store i32 %52, ptr %6, align 4, !tbaa !45
  br label %25, !llvm.loop !103

53:                                               ; preds = %28
  %54 = load ptr, ptr %5, align 8, !tbaa !52
  %55 = getelementptr inbounds nuw %struct.FFV1SliceContext, ptr %54, i32 0, i32 13
  call void @av_refstruct_unref(ptr noundef %55)
  call void @llvm.lifetime.end.p0(i64 8, ptr %5) #9
  br label %56

56:                                               ; preds = %53
  %57 = load i32, ptr %4, align 4, !tbaa !45
  %58 = add nsw i32 %57, 1
  store i32 %58, ptr %4, align 4, !tbaa !45
  br label %8, !llvm.loop !104

59:                                               ; preds = %8
  %60 = load ptr, ptr %2, align 8, !tbaa !9
  %61 = getelementptr inbounds nuw %struct.FFV1Context, ptr %60, i32 0, i32 50
  call void @av_refstruct_unref(ptr noundef %61)
  store i32 0, ptr %4, align 4, !tbaa !45
  br label %62

62:                                               ; preds = %102, %59
  %63 = load i32, ptr %4, align 4, !tbaa !45
  %64 = load ptr, ptr %2, align 8, !tbaa !9
  %65 = getelementptr inbounds nuw %struct.FFV1Context, ptr %64, i32 0, i32 44
  %66 = load i32, ptr %65, align 8, !tbaa !86
  %67 = icmp slt i32 %63, %66
  br i1 %67, label %68, label %105

68:                                               ; preds = %62
  %69 = load ptr, ptr %2, align 8, !tbaa !9
  %70 = getelementptr inbounds nuw %struct.FFV1Context, ptr %69, i32 0, i32 29
  %71 = load i32, ptr %4, align 4, !tbaa !45
  %72 = sext i32 %71 to i64
  %73 = getelementptr inbounds [8 x ptr], ptr %70, i64 0, i64 %72
  call void @av_freep(ptr noundef %73)
  store i32 0, ptr %3, align 4, !tbaa !45
  br label %74

74:                                               ; preds = %93, %68
  %75 = load i32, ptr %3, align 4, !tbaa !45
  %76 = load ptr, ptr %2, align 8, !tbaa !9
  %77 = getelementptr inbounds nuw %struct.FFV1Context, ptr %76, i32 0, i32 46
  %78 = load i32, ptr %77, align 8, !tbaa !71
  %79 = icmp slt i32 %75, %78
  br i1 %79, label %80, label %96

80:                                               ; preds = %74
  call void @llvm.lifetime.start.p0(i64 8, ptr %7) #9
  %81 = load ptr, ptr %2, align 8, !tbaa !9
  %82 = getelementptr inbounds nuw %struct.FFV1Context, ptr %81, i32 0, i32 49
  %83 = load ptr, ptr %82, align 8, !tbaa !72
  %84 = load i32, ptr %3, align 4, !tbaa !45
  %85 = sext i32 %84 to i64
  %86 = getelementptr inbounds %struct.FFV1SliceContext, ptr %83, i64 %85
  store ptr %86, ptr %7, align 8, !tbaa !52
  %87 = load ptr, ptr %7, align 8, !tbaa !52
  %88 = getelementptr inbounds nuw %struct.FFV1SliceContext, ptr %87, i32 0, i32 17
  %89 = getelementptr inbounds nuw %struct.anon.1, ptr %88, i32 0, i32 1
  %90 = load i32, ptr %4, align 4, !tbaa !45
  %91 = sext i32 %90 to i64
  %92 = getelementptr inbounds [8 x ptr], ptr %89, i64 0, i64 %91
  call void @av_freep(ptr noundef %92)
  call void @llvm.lifetime.end.p0(i64 8, ptr %7) #9
  br label %93

93:                                               ; preds = %80
  %94 = load i32, ptr %3, align 4, !tbaa !45
  %95 = add nsw i32 %94, 1
  store i32 %95, ptr %3, align 4, !tbaa !45
  br label %74, !llvm.loop !105

96:                                               ; preds = %74
  %97 = load ptr, ptr %2, align 8, !tbaa !9
  %98 = getelementptr inbounds nuw %struct.FFV1Context, ptr %97, i32 0, i32 3
  %99 = load i32, ptr %4, align 4, !tbaa !45
  %100 = sext i32 %99 to i64
  %101 = getelementptr inbounds [8 x ptr], ptr %98, i64 0, i64 %100
  call void @av_freep(ptr noundef %101)
  br label %102

102:                                              ; preds = %96
  %103 = load i32, ptr %4, align 4, !tbaa !45
  %104 = add nsw i32 %103, 1
  store i32 %104, ptr %4, align 4, !tbaa !45
  br label %62, !llvm.loop !106

105:                                              ; preds = %62
  %106 = load ptr, ptr %2, align 8, !tbaa !9
  %107 = getelementptr inbounds nuw %struct.FFV1Context, ptr %106, i32 0, i32 49
  call void @av_freep(ptr noundef %107)
  call void @llvm.lifetime.end.p0(i64 4, ptr %4) #9
  call void @llvm.lifetime.end.p0(i64 4, ptr %3) #9
  ret void
}