; Function Attrs: cold nounwind optsize uwtable
define void @ff_ffv1_close(ptr noundef %0) local_unnamed_addr #2 {
  %2 = getelementptr inbounds nuw i8, ptr %0, i64 25208
  %3 = load i32, ptr %2, align 8, !tbaa !63
  %4 = icmp sgt i32 %3, 0
  br i1 %4, label %.lr.ph, label %._crit_edge

.lr.ph:                                           ; preds = %1
  %5 = getelementptr inbounds nuw i8, ptr %0, i64 25224
  br label %6

6:                                                ; preds = %.lr.ph, %14
  %indvars.iv46 = phi i64 [ 0, %.lr.ph ], [ %indvars.iv.next47, %14 ]
  %7 = load ptr, ptr %5, align 8, !tbaa !65
  %8 = getelementptr inbounds nuw %struct.FFV1SliceContext, ptr %7, i64 %indvars.iv46
  tail call void @av_freep(ptr noundef %8) #12
  %9 = getelementptr inbounds nuw i8, ptr %8, i64 8
  tail call void @av_freep(ptr noundef nonnull %9) #12
  %10 = getelementptr inbounds nuw i8, ptr %8, i64 4880
  %11 = getelementptr inbounds nuw i8, ptr %8, i64 4912
  %12 = getelementptr inbounds nuw i8, ptr %8, i64 4944
  %13 = getelementptr inbounds nuw i8, ptr %8, i64 4960
  br label %19

14:                                               ; preds = %19
  %15 = getelementptr inbounds nuw i8, ptr %8, i64 64
  tail call void @av_refstruct_unref(ptr noundef nonnull %15) #12
  %indvars.iv.next47 = add nuw nsw i64 %indvars.iv46, 1
  %16 = load i32, ptr %2, align 8, !tbaa !63
  %17 = sext i32 %16 to i64
  %18 = icmp slt i64 %indvars.iv.next47, %17
  br i1 %18, label %6, label %._crit_edge, !llvm.loop !100

19:                                               ; preds = %6, %19
  %indvars.iv = phi i64 [ 0, %6 ], [ %indvars.iv.next, %19 ]
  %20 = getelementptr inbounds nuw [4 x ptr], ptr %10, i64 0, i64 %indvars.iv
  tail call void @av_freep(ptr noundef nonnull %20) #12
  %21 = getelementptr inbounds nuw [4 x ptr], ptr %11, i64 0, i64 %indvars.iv
  tail call void @av_freep(ptr noundef nonnull %21) #12
  %22 = getelementptr inbounds nuw [4 x i32], ptr %12, i64 0, i64 %indvars.iv
  store i32 0, ptr %22, align 4, !tbaa !79
  %23 = getelementptr inbounds nuw [4 x i32], ptr %13, i64 0, i64 %indvars.iv
  store i32 0, ptr %23, align 4, !tbaa !79
  %indvars.iv.next = add nuw nsw i64 %indvars.iv, 1
  %exitcond.not = icmp eq i64 %indvars.iv.next, 4
  br i1 %exitcond.not, label %14, label %19, !llvm.loop !101

._crit_edge:                                      ; preds = %14, %1
  %24 = getelementptr inbounds nuw i8, ptr %0, i64 25232
  tail call void @av_refstruct_unref(ptr noundef nonnull %24) #12
  %25 = getelementptr inbounds nuw i8, ptr %0, i64 25200
  %26 = load i32, ptr %25, align 8, !tbaa !78
  %27 = icmp sgt i32 %26, 0
  br i1 %27, label %.lr.ph43, label %._crit_edge44

.lr.ph43:                                         ; preds = %._crit_edge
  %28 = getelementptr inbounds nuw i8, ptr %0, i64 25080
  %29 = getelementptr inbounds nuw i8, ptr %0, i64 25224
  %30 = getelementptr inbounds nuw i8, ptr %0, i64 4112
  br label %31

31:                                               ; preds = %.lr.ph43, %._crit_edge40
  %indvars.iv52 = phi i64 [ 0, %.lr.ph43 ], [ %indvars.iv.next53, %._crit_edge40 ]
  %32 = getelementptr inbounds nuw [8 x ptr], ptr %28, i64 0, i64 %indvars.iv52
  tail call void @av_freep(ptr noundef nonnull %32) #12
  %33 = load i32, ptr %2, align 8, !tbaa !63
  %34 = icmp sgt i32 %33, 0
  br i1 %34, label %.lr.ph39, label %._crit_edge40

.lr.ph39:                                         ; preds = %31, %.lr.ph39
  %indvars.iv49 = phi i64 [ %indvars.iv.next50, %.lr.ph39 ], [ 0, %31 ]
  %35 = load ptr, ptr %29, align 8, !tbaa !65
  %36 = getelementptr inbounds nuw %struct.FFV1SliceContext, ptr %35, i64 %indvars.iv49, i32 17, i32 0, i32 1, i64 %indvars.iv52
  tail call void @av_freep(ptr noundef nonnull %36) #12
  %indvars.iv.next50 = add nuw nsw i64 %indvars.iv49, 1
  %37 = load i32, ptr %2, align 8, !tbaa !63
  %38 = sext i32 %37 to i64
  %39 = icmp slt i64 %indvars.iv.next50, %38
  br i1 %39, label %.lr.ph39, label %._crit_edge40, !llvm.loop !102

._crit_edge40:                                    ; preds = %.lr.ph39, %31
  %40 = getelementptr inbounds nuw [8 x ptr], ptr %30, i64 0, i64 %indvars.iv52
  tail call void @av_freep(ptr noundef nonnull %40) #12
  %indvars.iv.next53 = add nuw nsw i64 %indvars.iv52, 1
  %41 = load i32, ptr %25, align 8, !tbaa !78
  %42 = sext i32 %41 to i64
  %43 = icmp slt i64 %indvars.iv.next53, %42
  br i1 %43, label %31, label %._crit_edge44, !llvm.loop !103

._crit_edge44:                                    ; preds = %._crit_edge40, %._crit_edge
  %44 = getelementptr inbounds nuw i8, ptr %0, i64 25224
  tail call void @av_freep(ptr noundef nonnull %44) #12
  ret void
}